	.file	"asm-offsets.c"
# GNU C89 (Ubuntu 7.5.0-3ubuntu1~18.04) version 7.5.0 (x86_64-linux-gnu)
#	compiled by GNU C version 7.5.0, GMP version 6.1.2, MPFR version 4.0.1, MPC version 1.1.0, isl version isl-0.19-GMP

# GGC heuristics: --param ggc-min-expand=100 --param ggc-min-heapsize=131072
# options passed:  -nostdinc -I ./arch/x86/include
# -I ./arch/x86/include/generated -I ./include -I ./arch/x86/include/uapi
# -I ./arch/x86/include/generated/uapi -I ./include/uapi
# -I ./include/generated/uapi -imultiarch x86_64-linux-gnu -D __KERNEL__
# -D CONFIG_X86_X32_ABI -D CONFIG_AS_CFI=1 -D CONFIG_AS_CFI_SIGNAL_FRAME=1
# -D CONFIG_AS_CFI_SECTIONS=1 -D CONFIG_AS_FXSAVEQ=1 -D CONFIG_AS_SSSE3=1
# -D CONFIG_AS_CRC32=1 -D CONFIG_AS_AVX=1 -D CONFIG_AS_AVX2=1
# -D CONFIG_AS_AVX512=1 -D CONFIG_AS_SHA1_NI=1 -D CONFIG_AS_SHA256_NI=1
# -D RETPOLINE -D CC_HAVE_ASM_GOTO -D CC_USING_FENTRY
# -D KBUILD_BASENAME="asm_offsets" -D KBUILD_MODNAME="asm_offsets"
# -isystem /usr/lib/gcc/x86_64-linux-gnu/7/include
# -include ./include/linux/kconfig.h -MD arch/x86/kernel/.asm-offsets.s.d
# arch/x86/kernel/asm-offsets.c -mno-sse -mno-mmx -mno-sse2 -mno-3dnow
# -mno-avx -m64 -mno-80387 -mno-fp-ret-in-387 -mpreferred-stack-boundary=3
# -mskip-rax-setup -mtune=generic -mno-red-zone -mcmodel=kernel
# -mindirect-branch=thunk-extern -mindirect-branch-register -mfentry
# -march=x86-64 -auxbase-strip arch/x86/kernel/asm-offsets.s -g -gdwarf-4
# -O2 -Wall -Wundef -Wstrict-prototypes -Wno-trigraphs
# -Werror=implicit-function-declaration -Wno-format-security
# -Wno-sign-compare -Wno-frame-address -Wformat-truncation=0
# -Wformat-overflow=0 -Wno-int-in-bool-context -Wframe-larger-than=1024
# -Wno-unused-but-set-variable -Wunused-const-variable=0
# -Wdeclaration-after-statement -Wno-pointer-sign -Werror=implicit-int
# -Werror=strict-prototypes -Werror=date-time
# -Werror=incompatible-pointer-types -Werror=designated-init -std=gnu90 -p
# -fno-strict-aliasing -fno-common -fshort-wchar -fno-PIE -falign-jumps=1
# -falign-loops=1 -funit-at-a-time -fno-asynchronous-unwind-tables
# -fno-delete-null-pointer-checks -fstack-protector-strong
# -fno-omit-frame-pointer -fno-optimize-sibling-calls
# -fno-var-tracking-assignments -fno-strict-overflow -fstack-check=no
# -fconserve-stack -fverbose-asm --param allow-store-data-races=0
# -fstack-protector-strong
# options enabled:  -faggressive-loop-optimizations -falign-labels
# -fauto-inc-dec -fbranch-count-reg -fcaller-saves
# -fchkp-check-incomplete-type -fchkp-check-read -fchkp-check-write
# -fchkp-instrument-calls -fchkp-narrow-bounds -fchkp-optimize
# -fchkp-store-bounds -fchkp-use-static-bounds
# -fchkp-use-static-const-bounds -fchkp-use-wrappers -fcode-hoisting
# -fcombine-stack-adjustments -fcompare-elim -fcprop-registers
# -fcrossjumping -fcse-follow-jumps -fdefer-pop -fdevirtualize
# -fdevirtualize-speculatively -fdwarf2-cfi-asm -fearly-inlining
# -feliminate-unused-debug-types -fexpensive-optimizations
# -fforward-propagate -ffp-int-builtin-inexact -ffunction-cse -fgcse
# -fgcse-lm -fgnu-runtime -fgnu-unique -fguess-branch-probability
# -fhoist-adjacent-loads -fident -fif-conversion -fif-conversion2
# -findirect-inlining -finline -finline-atomics
# -finline-functions-called-once -finline-small-functions -fipa-bit-cp
# -fipa-cp -fipa-icf -fipa-icf-functions -fipa-icf-variables -fipa-profile
# -fipa-pure-const -fipa-reference -fipa-sra -fipa-vrp -fira-hoist-pressure
# -fira-share-save-slots -fira-share-spill-slots
# -fisolate-erroneous-paths-dereference -fivopts -fkeep-static-consts
# -fleading-underscore -flifetime-dse -flra-remat -flto-odr-type-merging
# -fmath-errno -fmerge-constants -fmerge-debug-strings
# -fmove-loop-invariants -foptimize-strlen -fpartial-inlining -fpeephole
# -fpeephole2 -fplt -fprefetch-loop-arrays -fprofile -free
# -freg-struct-return -freorder-blocks -freorder-functions
# -frerun-cse-after-loop -fsched-critical-path-heuristic
# -fsched-dep-count-heuristic -fsched-group-heuristic -fsched-interblock
# -fsched-last-insn-heuristic -fsched-rank-heuristic -fsched-spec
# -fsched-spec-insn-heuristic -fsched-stalled-insns-dep -fschedule-fusion
# -fschedule-insns2 -fsemantic-interposition -fshow-column -fshrink-wrap
# -fshrink-wrap-separate -fsigned-zeros -fsplit-ivs-in-unroller
# -fsplit-wide-types -fssa-backprop -fssa-phiopt -fstack-protector-strong
# -fstdarg-opt -fstore-merging -fstrict-volatile-bitfields -fsync-libcalls
# -fthread-jumps -ftoplevel-reorder -ftrapping-math -ftree-bit-ccp
# -ftree-builtin-call-dce -ftree-ccp -ftree-ch -ftree-coalesce-vars
# -ftree-copy-prop -ftree-cselim -ftree-dce -ftree-dominator-opts
# -ftree-dse -ftree-forwprop -ftree-fre -ftree-loop-if-convert
# -ftree-loop-im -ftree-loop-ivcanon -ftree-loop-optimize
# -ftree-parallelize-loops= -ftree-phiprop -ftree-pre -ftree-pta
# -ftree-reassoc -ftree-scev-cprop -ftree-sink -ftree-slsr -ftree-sra
# -ftree-switch-conversion -ftree-tail-merge -ftree-ter -ftree-vrp
# -funit-at-a-time -fvar-tracking -fverbose-asm -fzero-initialized-in-bss
# -m128bit-long-double -m64 -malign-stringops -mavx256-split-unaligned-load
# -mavx256-split-unaligned-store -mfentry -mfxsr -mglibc -mieee-fp
# -mindirect-branch-register -mlong-double-80 -mno-fancy-math-387
# -mno-red-zone -mno-sse4 -mpush-args -mskip-rax-setup
# -mtls-direct-seg-refs -mvzeroupper

	.text
.Ltext0:
	.cfi_sections	.debug_frame
	.section	.text.startup,"ax",@progbits
	.p2align 4,,15
	.globl	main
	.type	main, @function
main:
.LFB2966:
	.file 1 "arch/x86/kernel/asm-offsets_64.c"
	.loc 1 22 0
	.cfi_startproc
1:	call	__fentry__
	pushq	%rbp	#
	.cfi_def_cfa_offset 16
	.cfi_offset 6, -16
	movq	%rsp, %rbp	#,
	.cfi_def_cfa_register 6
# arch/x86/kernel/asm-offsets_64.c:24: 	OFFSET(PV_CPU_usergs_sysret64, pv_cpu_ops, usergs_sysret64);
	.loc 1 24 0
#APP
# 24 "arch/x86/kernel/asm-offsets_64.c" 1
	
.ascii "->PV_CPU_usergs_sysret64 $232 offsetof(struct pv_cpu_ops, usergs_sysret64)"	#
# 0 "" 2
# arch/x86/kernel/asm-offsets_64.c:25: 	OFFSET(PV_CPU_swapgs, pv_cpu_ops, swapgs);
	.loc 1 25 0
# 25 "arch/x86/kernel/asm-offsets_64.c" 1
	
.ascii "->PV_CPU_swapgs $248 offsetof(struct pv_cpu_ops, swapgs)"	#
# 0 "" 2
# arch/x86/kernel/asm-offsets_64.c:29: 	BLANK();
	.loc 1 29 0
# 29 "arch/x86/kernel/asm-offsets_64.c" 1
	
.ascii "->"
# 0 "" 2
# arch/x86/kernel/asm-offsets_64.c:33: 	OFFSET(KVM_STEAL_TIME_preempted, kvm_steal_time, preempted);
	.loc 1 33 0
# 33 "arch/x86/kernel/asm-offsets_64.c" 1
	
.ascii "->KVM_STEAL_TIME_preempted $16 offsetof(struct kvm_steal_time, preempted)"	#
# 0 "" 2
# arch/x86/kernel/asm-offsets_64.c:34: 	BLANK();
	.loc 1 34 0
# 34 "arch/x86/kernel/asm-offsets_64.c" 1
	
.ascii "->"
# 0 "" 2
# arch/x86/kernel/asm-offsets_64.c:38: 	ENTRY(bx);
	.loc 1 38 0
# 38 "arch/x86/kernel/asm-offsets_64.c" 1
	
.ascii "->pt_regs_bx $40 offsetof(struct pt_regs, bx)"	#
# 0 "" 2
# arch/x86/kernel/asm-offsets_64.c:39: 	ENTRY(cx);
	.loc 1 39 0
# 39 "arch/x86/kernel/asm-offsets_64.c" 1
	
.ascii "->pt_regs_cx $88 offsetof(struct pt_regs, cx)"	#
# 0 "" 2
# arch/x86/kernel/asm-offsets_64.c:40: 	ENTRY(dx);
	.loc 1 40 0
# 40 "arch/x86/kernel/asm-offsets_64.c" 1
	
.ascii "->pt_regs_dx $96 offsetof(struct pt_regs, dx)"	#
# 0 "" 2
# arch/x86/kernel/asm-offsets_64.c:41: 	ENTRY(sp);
	.loc 1 41 0
# 41 "arch/x86/kernel/asm-offsets_64.c" 1
	
.ascii "->pt_regs_sp $152 offsetof(struct pt_regs, sp)"	#
# 0 "" 2
# arch/x86/kernel/asm-offsets_64.c:42: 	ENTRY(bp);
	.loc 1 42 0
# 42 "arch/x86/kernel/asm-offsets_64.c" 1
	
.ascii "->pt_regs_bp $32 offsetof(struct pt_regs, bp)"	#
# 0 "" 2
# arch/x86/kernel/asm-offsets_64.c:43: 	ENTRY(si);
	.loc 1 43 0
# 43 "arch/x86/kernel/asm-offsets_64.c" 1
	
.ascii "->pt_regs_si $104 offsetof(struct pt_regs, si)"	#
# 0 "" 2
# arch/x86/kernel/asm-offsets_64.c:44: 	ENTRY(di);
	.loc 1 44 0
# 44 "arch/x86/kernel/asm-offsets_64.c" 1
	
.ascii "->pt_regs_di $112 offsetof(struct pt_regs, di)"	#
# 0 "" 2
# arch/x86/kernel/asm-offsets_64.c:45: 	ENTRY(r8);
	.loc 1 45 0
# 45 "arch/x86/kernel/asm-offsets_64.c" 1
	
.ascii "->pt_regs_r8 $72 offsetof(struct pt_regs, r8)"	#
# 0 "" 2
# arch/x86/kernel/asm-offsets_64.c:46: 	ENTRY(r9);
	.loc 1 46 0
# 46 "arch/x86/kernel/asm-offsets_64.c" 1
	
.ascii "->pt_regs_r9 $64 offsetof(struct pt_regs, r9)"	#
# 0 "" 2
# arch/x86/kernel/asm-offsets_64.c:47: 	ENTRY(r10);
	.loc 1 47 0
# 47 "arch/x86/kernel/asm-offsets_64.c" 1
	
.ascii "->pt_regs_r10 $56 offsetof(struct pt_regs, r10)"	#
# 0 "" 2
# arch/x86/kernel/asm-offsets_64.c:48: 	ENTRY(r11);
	.loc 1 48 0
# 48 "arch/x86/kernel/asm-offsets_64.c" 1
	
.ascii "->pt_regs_r11 $48 offsetof(struct pt_regs, r11)"	#
# 0 "" 2
# arch/x86/kernel/asm-offsets_64.c:49: 	ENTRY(r12);
	.loc 1 49 0
# 49 "arch/x86/kernel/asm-offsets_64.c" 1
	
.ascii "->pt_regs_r12 $24 offsetof(struct pt_regs, r12)"	#
# 0 "" 2
# arch/x86/kernel/asm-offsets_64.c:50: 	ENTRY(r13);
	.loc 1 50 0
# 50 "arch/x86/kernel/asm-offsets_64.c" 1
	
.ascii "->pt_regs_r13 $16 offsetof(struct pt_regs, r13)"	#
# 0 "" 2
# arch/x86/kernel/asm-offsets_64.c:51: 	ENTRY(r14);
	.loc 1 51 0
# 51 "arch/x86/kernel/asm-offsets_64.c" 1
	
.ascii "->pt_regs_r14 $8 offsetof(struct pt_regs, r14)"	#
# 0 "" 2
# arch/x86/kernel/asm-offsets_64.c:52: 	ENTRY(r15);
	.loc 1 52 0
# 52 "arch/x86/kernel/asm-offsets_64.c" 1
	
.ascii "->pt_regs_r15 $0 offsetof(struct pt_regs, r15)"	#
# 0 "" 2
# arch/x86/kernel/asm-offsets_64.c:53: 	ENTRY(flags);
	.loc 1 53 0
# 53 "arch/x86/kernel/asm-offsets_64.c" 1
	
.ascii "->pt_regs_flags $144 offsetof(struct pt_regs, flags)"	#
# 0 "" 2
# arch/x86/kernel/asm-offsets_64.c:54: 	BLANK();
	.loc 1 54 0
# 54 "arch/x86/kernel/asm-offsets_64.c" 1
	
.ascii "->"
# 0 "" 2
# arch/x86/kernel/asm-offsets_64.c:58: 	ENTRY(cr0);
	.loc 1 58 0
# 58 "arch/x86/kernel/asm-offsets_64.c" 1
	
.ascii "->saved_context_cr0 $200 offsetof(struct saved_context, cr0)"	#
# 0 "" 2
# arch/x86/kernel/asm-offsets_64.c:59: 	ENTRY(cr2);
	.loc 1 59 0
# 59 "arch/x86/kernel/asm-offsets_64.c" 1
	
.ascii "->saved_context_cr2 $208 offsetof(struct saved_context, cr2)"	#
# 0 "" 2
# arch/x86/kernel/asm-offsets_64.c:60: 	ENTRY(cr3);
	.loc 1 60 0
# 60 "arch/x86/kernel/asm-offsets_64.c" 1
	
.ascii "->saved_context_cr3 $216 offsetof(struct saved_context, cr3)"	#
# 0 "" 2
# arch/x86/kernel/asm-offsets_64.c:61: 	ENTRY(cr4);
	.loc 1 61 0
# 61 "arch/x86/kernel/asm-offsets_64.c" 1
	
.ascii "->saved_context_cr4 $224 offsetof(struct saved_context, cr4)"	#
# 0 "" 2
# arch/x86/kernel/asm-offsets_64.c:62: 	ENTRY(cr8);
	.loc 1 62 0
# 62 "arch/x86/kernel/asm-offsets_64.c" 1
	
.ascii "->saved_context_cr8 $232 offsetof(struct saved_context, cr8)"	#
# 0 "" 2
# arch/x86/kernel/asm-offsets_64.c:63: 	ENTRY(gdt_desc);
	.loc 1 63 0
# 63 "arch/x86/kernel/asm-offsets_64.c" 1
	
.ascii "->saved_context_gdt_desc $275 offsetof(struct saved_context, gdt_desc)"	#
# 0 "" 2
# arch/x86/kernel/asm-offsets_64.c:64: 	BLANK();
	.loc 1 64 0
# 64 "arch/x86/kernel/asm-offsets_64.c" 1
	
.ascii "->"
# 0 "" 2
# arch/x86/kernel/asm-offsets_64.c:67: 	OFFSET(TSS_ist, tss_struct, x86_tss.ist);
	.loc 1 67 0
# 67 "arch/x86/kernel/asm-offsets_64.c" 1
	
.ascii "->TSS_ist $36 offsetof(struct tss_struct, x86_tss.ist)"	#
# 0 "" 2
# arch/x86/kernel/asm-offsets_64.c:68: 	OFFSET(TSS_sp0, tss_struct, x86_tss.sp0);
	.loc 1 68 0
# 68 "arch/x86/kernel/asm-offsets_64.c" 1
	
.ascii "->TSS_sp0 $4 offsetof(struct tss_struct, x86_tss.sp0)"	#
# 0 "" 2
# arch/x86/kernel/asm-offsets_64.c:69: 	OFFSET(TSS_sp1, tss_struct, x86_tss.sp1);
	.loc 1 69 0
# 69 "arch/x86/kernel/asm-offsets_64.c" 1
	
.ascii "->TSS_sp1 $12 offsetof(struct tss_struct, x86_tss.sp1)"	#
# 0 "" 2
# arch/x86/kernel/asm-offsets_64.c:70: 	BLANK();
	.loc 1 70 0
# 70 "arch/x86/kernel/asm-offsets_64.c" 1
	
.ascii "->"
# 0 "" 2
# arch/x86/kernel/asm-offsets_64.c:73: 	DEFINE(stack_canary_offset, offsetof(union irq_stack_union, stack_canary));
	.loc 1 73 0
# 73 "arch/x86/kernel/asm-offsets_64.c" 1
	
.ascii "->stack_canary_offset $40 offsetof(union irq_stack_union, stack_canary)"	#
# 0 "" 2
# arch/x86/kernel/asm-offsets_64.c:74: 	BLANK();
	.loc 1 74 0
# 74 "arch/x86/kernel/asm-offsets_64.c" 1
	
.ascii "->"
# 0 "" 2
# arch/x86/kernel/asm-offsets_64.c:77: 	DEFINE(__NR_syscall_max, sizeof(syscalls_64) - 1);
	.loc 1 77 0
# 77 "arch/x86/kernel/asm-offsets_64.c" 1
	
.ascii "->__NR_syscall_max $547 sizeof(syscalls_64) - 1"	#
# 0 "" 2
# arch/x86/kernel/asm-offsets_64.c:78: 	DEFINE(NR_syscalls, sizeof(syscalls_64));
	.loc 1 78 0
# 78 "arch/x86/kernel/asm-offsets_64.c" 1
	
.ascii "->NR_syscalls $548 sizeof(syscalls_64)"	#
# 0 "" 2
# arch/x86/kernel/asm-offsets_64.c:80: 	DEFINE(__NR_syscall_compat_max, sizeof(syscalls_ia32) - 1);
	.loc 1 80 0
# 80 "arch/x86/kernel/asm-offsets_64.c" 1
	
.ascii "->__NR_syscall_compat_max $384 sizeof(syscalls_ia32) - 1"	#
# 0 "" 2
# arch/x86/kernel/asm-offsets_64.c:81: 	DEFINE(IA32_NR_syscalls, sizeof(syscalls_ia32));
	.loc 1 81 0
# 81 "arch/x86/kernel/asm-offsets_64.c" 1
	
.ascii "->IA32_NR_syscalls $385 sizeof(syscalls_ia32)"	#
# 0 "" 2
# arch/x86/kernel/asm-offsets_64.c:84: }
	.loc 1 84 0
#NO_APP
	xorl	%eax, %eax	#
	popq	%rbp	#
	.cfi_restore 6
	.cfi_def_cfa 7, 8
	ret
	.cfi_endproc
.LFE2966:
	.size	main, .-main
	.text
	.p2align 4,,15
	.globl	common
	.type	common, @function
common:
.LFB2967:
	.file 2 "arch/x86/kernel/asm-offsets.c"
	.loc 2 32 0
	.cfi_startproc
1:	call	__fentry__
	pushq	%rbp	#
	.cfi_def_cfa_offset 16
	.cfi_offset 6, -16
	movq	%rsp, %rbp	#,
	.cfi_def_cfa_register 6
# arch/x86/kernel/asm-offsets.c:33: 	BLANK();
	.loc 2 33 0
#APP
# 33 "arch/x86/kernel/asm-offsets.c" 1
	
.ascii "->"
# 0 "" 2
# arch/x86/kernel/asm-offsets.c:34: 	OFFSET(TASK_threadsp, task_struct, thread.sp);
	.loc 2 34 0
# 34 "arch/x86/kernel/asm-offsets.c" 1
	
.ascii "->TASK_threadsp $4824 offsetof(struct task_struct, thread.sp)"	#
# 0 "" 2
# arch/x86/kernel/asm-offsets.c:36: 	OFFSET(TASK_stack_canary, task_struct, stack_canary);
	.loc 2 36 0
# 36 "arch/x86/kernel/asm-offsets.c" 1
	
.ascii "->TASK_stack_canary $2288 offsetof(struct task_struct, stack_canary)"	#
# 0 "" 2
# arch/x86/kernel/asm-offsets.c:39: 	BLANK();
	.loc 2 39 0
# 39 "arch/x86/kernel/asm-offsets.c" 1
	
.ascii "->"
# 0 "" 2
# arch/x86/kernel/asm-offsets.c:40: 	OFFSET(TASK_TI_flags, task_struct, thread_info.flags);
	.loc 2 40 0
# 40 "arch/x86/kernel/asm-offsets.c" 1
	
.ascii "->TASK_TI_flags $0 offsetof(struct task_struct, thread_info.flags)"	#
# 0 "" 2
# arch/x86/kernel/asm-offsets.c:41: 	OFFSET(TASK_addr_limit, task_struct, thread.addr_limit);
	.loc 2 41 0
# 41 "arch/x86/kernel/asm-offsets.c" 1
	
.ascii "->TASK_addr_limit $4960 offsetof(struct task_struct, thread.addr_limit)"	#
# 0 "" 2
# arch/x86/kernel/asm-offsets.c:43: 	BLANK();
	.loc 2 43 0
# 43 "arch/x86/kernel/asm-offsets.c" 1
	
.ascii "->"
# 0 "" 2
# arch/x86/kernel/asm-offsets.c:44: 	OFFSET(crypto_tfm_ctx_offset, crypto_tfm, __crt_ctx);
	.loc 2 44 0
# 44 "arch/x86/kernel/asm-offsets.c" 1
	
.ascii "->crypto_tfm_ctx_offset $64 offsetof(struct crypto_tfm, __crt_ctx)"	#
# 0 "" 2
# arch/x86/kernel/asm-offsets.c:46: 	BLANK();
	.loc 2 46 0
# 46 "arch/x86/kernel/asm-offsets.c" 1
	
.ascii "->"
# 0 "" 2
# arch/x86/kernel/asm-offsets.c:47: 	OFFSET(pbe_address, pbe, address);
	.loc 2 47 0
# 47 "arch/x86/kernel/asm-offsets.c" 1
	
.ascii "->pbe_address $0 offsetof(struct pbe, address)"	#
# 0 "" 2
# arch/x86/kernel/asm-offsets.c:48: 	OFFSET(pbe_orig_address, pbe, orig_address);
	.loc 2 48 0
# 48 "arch/x86/kernel/asm-offsets.c" 1
	
.ascii "->pbe_orig_address $8 offsetof(struct pbe, orig_address)"	#
# 0 "" 2
# arch/x86/kernel/asm-offsets.c:49: 	OFFSET(pbe_next, pbe, next);
	.loc 2 49 0
# 49 "arch/x86/kernel/asm-offsets.c" 1
	
.ascii "->pbe_next $16 offsetof(struct pbe, next)"	#
# 0 "" 2
# arch/x86/kernel/asm-offsets.c:52: 	BLANK();
	.loc 2 52 0
# 52 "arch/x86/kernel/asm-offsets.c" 1
	
.ascii "->"
# 0 "" 2
# arch/x86/kernel/asm-offsets.c:53: 	OFFSET(IA32_SIGCONTEXT_ax, sigcontext_32, ax);
	.loc 2 53 0
# 53 "arch/x86/kernel/asm-offsets.c" 1
	
.ascii "->IA32_SIGCONTEXT_ax $44 offsetof(struct sigcontext_32, ax)"	#
# 0 "" 2
# arch/x86/kernel/asm-offsets.c:54: 	OFFSET(IA32_SIGCONTEXT_bx, sigcontext_32, bx);
	.loc 2 54 0
# 54 "arch/x86/kernel/asm-offsets.c" 1
	
.ascii "->IA32_SIGCONTEXT_bx $32 offsetof(struct sigcontext_32, bx)"	#
# 0 "" 2
# arch/x86/kernel/asm-offsets.c:55: 	OFFSET(IA32_SIGCONTEXT_cx, sigcontext_32, cx);
	.loc 2 55 0
# 55 "arch/x86/kernel/asm-offsets.c" 1
	
.ascii "->IA32_SIGCONTEXT_cx $40 offsetof(struct sigcontext_32, cx)"	#
# 0 "" 2
# arch/x86/kernel/asm-offsets.c:56: 	OFFSET(IA32_SIGCONTEXT_dx, sigcontext_32, dx);
	.loc 2 56 0
# 56 "arch/x86/kernel/asm-offsets.c" 1
	
.ascii "->IA32_SIGCONTEXT_dx $36 offsetof(struct sigcontext_32, dx)"	#
# 0 "" 2
# arch/x86/kernel/asm-offsets.c:57: 	OFFSET(IA32_SIGCONTEXT_si, sigcontext_32, si);
	.loc 2 57 0
# 57 "arch/x86/kernel/asm-offsets.c" 1
	
.ascii "->IA32_SIGCONTEXT_si $20 offsetof(struct sigcontext_32, si)"	#
# 0 "" 2
# arch/x86/kernel/asm-offsets.c:58: 	OFFSET(IA32_SIGCONTEXT_di, sigcontext_32, di);
	.loc 2 58 0
# 58 "arch/x86/kernel/asm-offsets.c" 1
	
.ascii "->IA32_SIGCONTEXT_di $16 offsetof(struct sigcontext_32, di)"	#
# 0 "" 2
# arch/x86/kernel/asm-offsets.c:59: 	OFFSET(IA32_SIGCONTEXT_bp, sigcontext_32, bp);
	.loc 2 59 0
# 59 "arch/x86/kernel/asm-offsets.c" 1
	
.ascii "->IA32_SIGCONTEXT_bp $24 offsetof(struct sigcontext_32, bp)"	#
# 0 "" 2
# arch/x86/kernel/asm-offsets.c:60: 	OFFSET(IA32_SIGCONTEXT_sp, sigcontext_32, sp);
	.loc 2 60 0
# 60 "arch/x86/kernel/asm-offsets.c" 1
	
.ascii "->IA32_SIGCONTEXT_sp $28 offsetof(struct sigcontext_32, sp)"	#
# 0 "" 2
# arch/x86/kernel/asm-offsets.c:61: 	OFFSET(IA32_SIGCONTEXT_ip, sigcontext_32, ip);
	.loc 2 61 0
# 61 "arch/x86/kernel/asm-offsets.c" 1
	
.ascii "->IA32_SIGCONTEXT_ip $56 offsetof(struct sigcontext_32, ip)"	#
# 0 "" 2
# arch/x86/kernel/asm-offsets.c:63: 	BLANK();
	.loc 2 63 0
# 63 "arch/x86/kernel/asm-offsets.c" 1
	
.ascii "->"
# 0 "" 2
# arch/x86/kernel/asm-offsets.c:64: 	OFFSET(IA32_RT_SIGFRAME_sigcontext, rt_sigframe_ia32, uc.uc_mcontext);
	.loc 2 64 0
# 64 "arch/x86/kernel/asm-offsets.c" 1
	
.ascii "->IA32_RT_SIGFRAME_sigcontext $164 offsetof(struct rt_sigframe_ia32, uc.uc_mcontext)"	#
# 0 "" 2
# arch/x86/kernel/asm-offsets.c:68: 	BLANK();
	.loc 2 68 0
# 68 "arch/x86/kernel/asm-offsets.c" 1
	
.ascii "->"
# 0 "" 2
# arch/x86/kernel/asm-offsets.c:69: 	OFFSET(PARAVIRT_PATCH_pv_cpu_ops, paravirt_patch_template, pv_cpu_ops);
	.loc 2 69 0
# 69 "arch/x86/kernel/asm-offsets.c" 1
	
.ascii "->PARAVIRT_PATCH_pv_cpu_ops $24 offsetof(struct paravirt_patch_template, pv_cpu_ops)"	#
# 0 "" 2
# arch/x86/kernel/asm-offsets.c:70: 	OFFSET(PARAVIRT_PATCH_pv_irq_ops, paravirt_patch_template, pv_irq_ops);
	.loc 2 70 0
# 70 "arch/x86/kernel/asm-offsets.c" 1
	
.ascii "->PARAVIRT_PATCH_pv_irq_ops $296 offsetof(struct paravirt_patch_template, pv_irq_ops)"	#
# 0 "" 2
# arch/x86/kernel/asm-offsets.c:71: 	OFFSET(PV_IRQ_irq_disable, pv_irq_ops, irq_disable);
	.loc 2 71 0
# 71 "arch/x86/kernel/asm-offsets.c" 1
	
.ascii "->PV_IRQ_irq_disable $16 offsetof(struct pv_irq_ops, irq_disable)"	#
# 0 "" 2
# arch/x86/kernel/asm-offsets.c:72: 	OFFSET(PV_IRQ_irq_enable, pv_irq_ops, irq_enable);
	.loc 2 72 0
# 72 "arch/x86/kernel/asm-offsets.c" 1
	
.ascii "->PV_IRQ_irq_enable $24 offsetof(struct pv_irq_ops, irq_enable)"	#
# 0 "" 2
# arch/x86/kernel/asm-offsets.c:73: 	OFFSET(PV_CPU_iret, pv_cpu_ops, iret);
	.loc 2 73 0
# 73 "arch/x86/kernel/asm-offsets.c" 1
	
.ascii "->PV_CPU_iret $240 offsetof(struct pv_cpu_ops, iret)"	#
# 0 "" 2
# arch/x86/kernel/asm-offsets.c:74: 	OFFSET(PV_CPU_read_cr0, pv_cpu_ops, read_cr0);
	.loc 2 74 0
# 74 "arch/x86/kernel/asm-offsets.c" 1
	
.ascii "->PV_CPU_read_cr0 $16 offsetof(struct pv_cpu_ops, read_cr0)"	#
# 0 "" 2
# arch/x86/kernel/asm-offsets.c:75: 	OFFSET(PV_MMU_read_cr2, pv_mmu_ops, read_cr2);
	.loc 2 75 0
# 75 "arch/x86/kernel/asm-offsets.c" 1
	
.ascii "->PV_MMU_read_cr2 $0 offsetof(struct pv_mmu_ops, read_cr2)"	#
# 0 "" 2
# arch/x86/kernel/asm-offsets.c:79: 	BLANK();
	.loc 2 79 0
# 79 "arch/x86/kernel/asm-offsets.c" 1
	
.ascii "->"
# 0 "" 2
# arch/x86/kernel/asm-offsets.c:80: 	OFFSET(XEN_vcpu_info_mask, vcpu_info, evtchn_upcall_mask);
	.loc 2 80 0
# 80 "arch/x86/kernel/asm-offsets.c" 1
	
.ascii "->XEN_vcpu_info_mask $1 offsetof(struct vcpu_info, evtchn_upcall_mask)"	#
# 0 "" 2
# arch/x86/kernel/asm-offsets.c:81: 	OFFSET(XEN_vcpu_info_pending, vcpu_info, evtchn_upcall_pending);
	.loc 2 81 0
# 81 "arch/x86/kernel/asm-offsets.c" 1
	
.ascii "->XEN_vcpu_info_pending $0 offsetof(struct vcpu_info, evtchn_upcall_pending)"	#
# 0 "" 2
# arch/x86/kernel/asm-offsets.c:84: 	BLANK();
	.loc 2 84 0
# 84 "arch/x86/kernel/asm-offsets.c" 1
	
.ascii "->"
# 0 "" 2
# arch/x86/kernel/asm-offsets.c:85: 	OFFSET(BP_scratch, boot_params, scratch);
	.loc 2 85 0
# 85 "arch/x86/kernel/asm-offsets.c" 1
	
.ascii "->BP_scratch $484 offsetof(struct boot_params, scratch)"	#
# 0 "" 2
# arch/x86/kernel/asm-offsets.c:86: 	OFFSET(BP_secure_boot, boot_params, secure_boot);
	.loc 2 86 0
# 86 "arch/x86/kernel/asm-offsets.c" 1
	
.ascii "->BP_secure_boot $492 offsetof(struct boot_params, secure_boot)"	#
# 0 "" 2
# arch/x86/kernel/asm-offsets.c:87: 	OFFSET(BP_loadflags, boot_params, hdr.loadflags);
	.loc 2 87 0
# 87 "arch/x86/kernel/asm-offsets.c" 1
	
.ascii "->BP_loadflags $529 offsetof(struct boot_params, hdr.loadflags)"	#
# 0 "" 2
# arch/x86/kernel/asm-offsets.c:88: 	OFFSET(BP_hardware_subarch, boot_params, hdr.hardware_subarch);
	.loc 2 88 0
# 88 "arch/x86/kernel/asm-offsets.c" 1
	
.ascii "->BP_hardware_subarch $572 offsetof(struct boot_params, hdr.hardware_subarch)"	#
# 0 "" 2
# arch/x86/kernel/asm-offsets.c:89: 	OFFSET(BP_version, boot_params, hdr.version);
	.loc 2 89 0
# 89 "arch/x86/kernel/asm-offsets.c" 1
	
.ascii "->BP_version $518 offsetof(struct boot_params, hdr.version)"	#
# 0 "" 2
# arch/x86/kernel/asm-offsets.c:90: 	OFFSET(BP_kernel_alignment, boot_params, hdr.kernel_alignment);
	.loc 2 90 0
# 90 "arch/x86/kernel/asm-offsets.c" 1
	
.ascii "->BP_kernel_alignment $560 offsetof(struct boot_params, hdr.kernel_alignment)"	#
# 0 "" 2
# arch/x86/kernel/asm-offsets.c:91: 	OFFSET(BP_init_size, boot_params, hdr.init_size);
	.loc 2 91 0
# 91 "arch/x86/kernel/asm-offsets.c" 1
	
.ascii "->BP_init_size $608 offsetof(struct boot_params, hdr.init_size)"	#
# 0 "" 2
# arch/x86/kernel/asm-offsets.c:92: 	OFFSET(BP_pref_address, boot_params, hdr.pref_address);
	.loc 2 92 0
# 92 "arch/x86/kernel/asm-offsets.c" 1
	
.ascii "->BP_pref_address $600 offsetof(struct boot_params, hdr.pref_address)"	#
# 0 "" 2
# arch/x86/kernel/asm-offsets.c:93: 	OFFSET(BP_code32_start, boot_params, hdr.code32_start);
	.loc 2 93 0
# 93 "arch/x86/kernel/asm-offsets.c" 1
	
.ascii "->BP_code32_start $532 offsetof(struct boot_params, hdr.code32_start)"	#
# 0 "" 2
# arch/x86/kernel/asm-offsets.c:95: 	BLANK();
	.loc 2 95 0
# 95 "arch/x86/kernel/asm-offsets.c" 1
	
.ascii "->"
# 0 "" 2
# arch/x86/kernel/asm-offsets.c:96: 	DEFINE(PTREGS_SIZE, sizeof(struct pt_regs));
	.loc 2 96 0
# 96 "arch/x86/kernel/asm-offsets.c" 1
	
.ascii "->PTREGS_SIZE $168 sizeof(struct pt_regs)"	#
# 0 "" 2
# arch/x86/kernel/asm-offsets.c:99: 	OFFSET(TLB_STATE_user_pcid_flush_mask, tlb_state, user_pcid_flush_mask);
	.loc 2 99 0
# 99 "arch/x86/kernel/asm-offsets.c" 1
	
.ascii "->TLB_STATE_user_pcid_flush_mask $14 offsetof(struct tlb_state, user_pcid_flush_mask)"	#
# 0 "" 2
# arch/x86/kernel/asm-offsets.c:102: 	OFFSET(CPU_ENTRY_AREA_tss, cpu_entry_area, tss);
	.loc 2 102 0
# 102 "arch/x86/kernel/asm-offsets.c" 1
	
.ascii "->CPU_ENTRY_AREA_tss $8192 offsetof(struct cpu_entry_area, tss)"	#
# 0 "" 2
# arch/x86/kernel/asm-offsets.c:103: 	OFFSET(CPU_ENTRY_AREA_entry_trampoline, cpu_entry_area, entry_trampoline);
	.loc 2 103 0
# 103 "arch/x86/kernel/asm-offsets.c" 1
	
.ascii "->CPU_ENTRY_AREA_entry_trampoline $20480 offsetof(struct cpu_entry_area, entry_trampoline)"	#
# 0 "" 2
# arch/x86/kernel/asm-offsets.c:104: 	OFFSET(CPU_ENTRY_AREA_entry_stack, cpu_entry_area, entry_stack_page);
	.loc 2 104 0
# 104 "arch/x86/kernel/asm-offsets.c" 1
	
.ascii "->CPU_ENTRY_AREA_entry_stack $4096 offsetof(struct cpu_entry_area, entry_stack_page)"	#
# 0 "" 2
# arch/x86/kernel/asm-offsets.c:105: 	DEFINE(SIZEOF_entry_stack, sizeof(struct entry_stack));
	.loc 2 105 0
# 105 "arch/x86/kernel/asm-offsets.c" 1
	
.ascii "->SIZEOF_entry_stack $512 sizeof(struct entry_stack)"	#
# 0 "" 2
# arch/x86/kernel/asm-offsets.c:106: }
	.loc 2 106 0
#NO_APP
	popq	%rbp	#
	.cfi_restore 6
	.cfi_def_cfa 7, 8
	ret
	.cfi_endproc
.LFE2967:
	.size	common, .-common
.Letext0:
	.file 3 "./include/uapi/asm-generic/int-ll64.h"
	.file 4 "./include/asm-generic/int-ll64.h"
	.file 5 "./include/uapi/asm-generic/posix_types.h"
	.file 6 "./include/linux/types.h"
	.file 7 "./arch/x86/include/asm/alternative.h"
	.file 8 "./arch/x86/include/asm/nops.h"
	.file 9 "./include/asm-generic/atomic-long.h"
	.file 10 "./include/linux/init.h"
	.file 11 "./include/linux/printk.h"
	.file 12 "./include/linux/jump_label.h"
	.file 13 "./arch/x86/include/asm/jump_label.h"
	.file 14 "./include/linux/fs.h"
	.file 15 "./include/linux/notifier.h"
	.file 16 "./include/linux/kernel.h"
	.file 17 "./include/asm-generic/percpu.h"
	.file 18 "./arch/x86/include/asm/percpu.h"
	.file 19 "./include/linux/restart_block.h"
	.file 20 "./include/uapi/linux/time.h"
	.file 21 "./arch/x86/include/asm/compat.h"
	.file 22 "./include/linux/sched.h"
	.file 23 "./arch/x86/include/asm/current.h"
	.file 24 "./include/uapi/linux/screen_info.h"
	.file 25 "./include/linux/screen_info.h"
	.file 26 "./include/uapi/linux/apm_bios.h"
	.file 27 "./include/asm-generic/ioctl.h"
	.file 28 "./include/linux/apm_bios.h"
	.file 29 "./include/uapi/linux/edd.h"
	.file 30 "./arch/x86/include/uapi/asm/ist.h"
	.file 31 "./arch/x86/include/asm/ist.h"
	.file 32 "./include/uapi/video/edid.h"
	.file 33 "./include/video/edid.h"
	.file 34 "./arch/x86/include/asm/mem_encrypt.h"
	.file 35 "./arch/x86/include/asm/kaslr.h"
	.file 36 "./arch/x86/include/asm/page_types.h"
	.file 37 "./arch/x86/include/asm/page_64.h"
	.file 38 "./include/linux/range.h"
	.file 39 "./arch/x86/include/asm/page.h"
	.file 40 "./arch/x86/include/asm/segment.h"
	.file 41 "./arch/x86/include/asm/ptrace.h"
	.file 42 "./arch/x86/include/asm/desc_defs.h"
	.file 43 "./arch/x86/include/asm/pgtable_64_types.h"
	.file 44 "./arch/x86/include/asm/pgtable_types.h"
	.file 45 "./include/asm-generic/pgtable-nop4d.h"
	.file 46 "./include/linux/mm_types.h"
	.file 47 "./arch/x86/include/asm/paravirt_types.h"
	.file 48 "./arch/x86/include/asm/processor.h"
	.file 49 "./include/linux/cpumask.h"
	.file 50 "./arch/x86/include/asm/tlbflush.h"
	.file 51 "./include/asm-generic/qspinlock_types.h"
	.file 52 "./include/asm-generic/qrwlock_types.h"
	.file 53 "./arch/x86/include/asm/math_emu.h"
	.file 54 "./arch/x86/include/asm/string_64.h"
	.file 55 "./arch/x86/include/asm/cpumask.h"
	.file 56 "./include/linux/tracepoint-defs.h"
	.file 57 "./arch/x86/include/asm/msr.h"
	.file 58 "./arch/x86/include/asm/paravirt.h"
	.file 59 "./arch/x86/include/asm/special_insns.h"
	.file 60 "./arch/x86/include/asm/fpu/types.h"
	.file 61 "./include/linux/seq_file.h"
	.file 62 "./arch/x86/include/asm/cpufeature.h"
	.file 63 "./arch/x86/include/asm/thread_info.h"
	.file 64 "./arch/x86/include/asm/preempt.h"
	.file 65 "./include/linux/lockdep.h"
	.file 66 "./include/linux/spinlock_types.h"
	.file 67 "./include/linux/rwlock_types.h"
	.file 68 "./arch/x86/include/asm/qspinlock.h"
	.file 69 "./include/linux/wait.h"
	.file 70 "./include/linux/seqlock.h"
	.file 71 "./include/linux/nodemask.h"
	.file 72 "./include/linux/mmzone.h"
	.file 73 "./include/linux/osq_lock.h"
	.file 74 "./include/linux/debug_locks.h"
	.file 75 "./include/linux/mutex.h"
	.file 76 "./include/linux/rwsem.h"
	.file 77 "./include/linux/rcupdate.h"
	.file 78 "./include/linux/time64.h"
	.file 79 "./include/linux/time.h"
	.file 80 "./arch/x86/include/asm/tsc.h"
	.file 81 "./include/linux/timex.h"
	.file 82 "./include/linux/jiffies.h"
	.file 83 "./include/linux/ktime.h"
	.file 84 "./include/linux/timekeeping.h"
	.file 85 "./include/linux/timer.h"
	.file 86 "./include/linux/workqueue.h"
	.file 87 "./include/linux/completion.h"
	.file 88 "./include/linux/memory_hotplug.h"
	.file 89 "./arch/x86/include/asm/mpspec_def.h"
	.file 90 "./arch/x86/include/asm/x86_init.h"
	.file 91 "./arch/x86/include/asm/mpspec.h"
	.file 92 "./arch/x86/include/asm/topology.h"
	.file 93 "./arch/x86/include/asm/numa.h"
	.file 94 "./arch/x86/include/asm/mmu.h"
	.file 95 "./arch/x86/include/asm/io.h"
	.file 96 "./include/xen/xen.h"
	.file 97 "./arch/x86/include/asm/xen/interface.h"
	.file 98 "./arch/x86/include/asm/xen/interface_64.h"
	.file 99 "./arch/x86/include/asm/pvclock-abi.h"
	.file 100 "./include/xen/interface/xen.h"
	.file 101 "./arch/x86/include/asm/xen/hypervisor.h"
	.file 102 "./include/linux/llist.h"
	.file 103 "./include/linux/rbtree.h"
	.file 104 "./include/linux/vmalloc.h"
	.file 105 "./arch/x86/include/asm/realmode.h"
	.file 106 "./arch/x86/include/asm/acpi.h"
	.file 107 "./include/linux/device.h"
	.file 108 "./arch/x86/include/asm/fixmap.h"
	.file 109 "./arch/x86/include/asm/apic.h"
	.file 110 "./include/linux/irq.h"
	.file 111 "./arch/x86/include/asm/io_apic.h"
	.file 112 "./arch/x86/include/asm/smp.h"
	.file 113 "./include/linux/smp.h"
	.file 114 "./include/linux/percpu.h"
	.file 115 "./include/linux/topology.h"
	.file 116 "./include/linux/gfp.h"
	.file 117 "./include/linux/slab.h"
	.file 118 "./include/linux/memcontrol.h"
	.file 119 "./include/linux/pid.h"
	.file 120 "./include/linux/highuid.h"
	.file 121 "./include/linux/user_namespace.h"
	.file 122 "./include/linux/uidgid.h"
	.file 123 "./include/linux/refcount.h"
	.file 124 "./include/linux/sem.h"
	.file 125 "./include/linux/sched/user.h"
	.file 126 "./include/linux/shm.h"
	.file 127 "./include/linux/plist.h"
	.file 128 "./include/linux/timerqueue.h"
	.file 129 "./include/linux/hrtimer.h"
	.file 130 "./include/linux/seccomp.h"
	.file 131 "./arch/x86/include/asm/signal.h"
	.file 132 "./include/uapi/asm-generic/siginfo.h"
	.file 133 "./include/linux/signal_types.h"
	.file 134 "./arch/x86/include/asm/tlbbatch.h"
	.file 135 "./include/linux/mm_types_task.h"
	.file 136 "./include/linux/task_io_accounting.h"
	.file 137 "./include/linux/cred.h"
	.file 138 "./include/linux/nsproxy.h"
	.file 139 "./include/linux/bio.h"
	.file 140 "./include/linux/swap.h"
	.file 141 "./include/linux/backing-dev-defs.h"
	.file 142 "./include/linux/iocontext.h"
	.file 143 "./include/linux/cgroup-defs.h"
	.file 144 "./include/linux/compat.h"
	.file 145 "./include/linux/uprobes.h"
	.file 146 "./arch/x86/include/asm/extable.h"
	.file 147 "./include/linux/ftrace_irq.h"
	.file 148 "./include/linux/irqhandler.h"
	.file 149 "./include/linux/irqdesc.h"
	.file 150 "./include/linux/irqreturn.h"
	.file 151 "./include/linux/irqnr.h"
	.file 152 "./arch/x86/include/asm/irq.h"
	.file 153 "./arch/x86/include/asm/irq_regs.h"
	.file 154 "./include/linux/interrupt.h"
	.file 155 "./include/linux/radix-tree.h"
	.file 156 "./include/linux/idr.h"
	.file 157 "./include/linux/kernfs.h"
	.file 158 "./include/linux/mm.h"
	.file 159 "./include/linux/kobject_ns.h"
	.file 160 "./include/linux/stat.h"
	.file 161 "./include/linux/sysfs.h"
	.file 162 "./include/linux/kobject.h"
	.file 163 "./include/linux/kref.h"
	.file 164 "./include/linux/profile.h"
	.file 165 "./include/asm-generic/sections.h"
	.file 166 "./arch/x86/include/asm/asm.h"
	.file 167 "./arch/x86/include/asm/sections.h"
	.file 168 "./arch/x86/include/asm/hw_irq.h"
	.file 169 "./arch/x86/include/asm/hardirq.h"
	.file 170 "./include/linux/list_bl.h"
	.file 171 "./include/linux/lockref.h"
	.file 172 "./include/linux/dcache.h"
	.file 173 "./include/linux/path.h"
	.file 174 "./include/linux/shrinker.h"
	.file 175 "./include/linux/list_lru.h"
	.file 176 "./arch/x86/include/asm/uprobes.h"
	.file 177 "./include/linux/memremap.h"
	.file 178 "./include/linux/capability.h"
	.file 179 "./include/uapi/linux/fiemap.h"
	.file 180 "./include/linux/migrate_mode.h"
	.file 181 "./include/linux/rcuwait.h"
	.file 182 "./include/linux/rcu_sync.h"
	.file 183 "./include/linux/percpu-rwsem.h"
	.file 184 "./include/linux/delayed_call.h"
	.file 185 "./include/uapi/linux/uuid.h"
	.file 186 "./include/linux/uuid.h"
	.file 187 "./include/linux/errseq.h"
	.file 188 "./include/uapi/linux/fs.h"
	.file 189 "./include/linux/percpu_counter.h"
	.file 190 "./include/linux/quota.h"
	.file 191 "./include/linux/projid.h"
	.file 192 "./include/linux/writeback.h"
	.file 193 "./include/linux/uio.h"
	.file 194 "./include/linux/nfs_fs_i.h"
	.file 195 "./include/linux/blk_types.h"
	.file 196 "./include/linux/sysctl.h"
	.file 197 "./include/linux/assoc_array.h"
	.file 198 "./include/linux/key.h"
	.file 199 "./include/linux/ns_common.h"
	.file 200 "./include/linux/cgroup.h"
	.file 201 "./include/linux/kernel_stat.h"
	.file 202 "./include/linux/percpu-refcount.h"
	.file 203 "./include/linux/u64_stats_sync.h"
	.file 204 "./include/linux/bpf-cgroup.h"
	.file 205 "./include/linux/cgroup_subsys.h"
	.file 206 "./include/linux/page_counter.h"
	.file 207 "./include/linux/vmpressure.h"
	.file 208 "./include/linux/page_ext.h"
	.file 209 "./include/linux/page_ref.h"
	.file 210 "./include/linux/ioport.h"
	.file 211 "./arch/x86/include/asm/pgtable.h"
	.file 212 "./arch/x86/include/asm/pgtable_64.h"
	.file 213 "./include/linux/huge_mm.h"
	.file 214 "./include/linux/vmstat.h"
	.file 215 "./include/linux/flex_proportions.h"
	.file 216 "./include/linux/bvec.h"
	.file 217 "./include/linux/mempool.h"
	.file 218 "./include/linux/klist.h"
	.file 219 "./include/linux/pinctrl/devinfo.h"
	.file 220 "./include/linux/pm.h"
	.file 221 "./include/linux/pm_wakeup.h"
	.file 222 "./include/linux/ratelimit.h"
	.file 223 "./arch/x86/include/asm/device.h"
	.file 224 "./include/linux/node.h"
	.file 225 "./include/linux/freezer.h"
	.file 226 "./include/linux/suspend.h"
	.file 227 "./include/uapi/linux/uio.h"
	.file 228 "./arch/x86/include/asm/intel_ds.h"
	.file 229 "./arch/x86/include/asm/cpu_entry_area.h"
	.file 230 "./arch/x86/include/asm/desc.h"
	.file 231 "./arch/x86/include/asm/suspend_64.h"
	.file 232 "./include/linux/edd.h"
	.section	.note.GNU-stack,"",@progbits
